target datalayout = "e-m:e-p270:32:32-p271:32:32-p272:64:64-i64:64-i128:128-f80:128-n8:16:32:64-S128"
target triple = "x86_64-pc-linux-gnu"

%struct.ossl_param_st = type { ptr, i32, ptr, i64, i64 }

@.str = private unnamed_addr constant [28 x i8] c"../openssl/test/rand_test.c\00", align 1
@.str.8 = private unnamed_addr constant [5 x i8] c"fips\00", align 1
@__const.test_rand.entropy1 = private unnamed_addr constant [6 x i8] c"\00\01\02\03\04\05", align 1
@__const.test_rand.entropy2 = private unnamed_addr constant [3 x i8] c"\FF\FE\FD", align 1
@.str.11 = private unnamed_addr constant [13 x i8] c"test_entropy\00", align 1
@.str.12 = private unnamed_addr constant [34 x i8] c"privctx = RAND_get0_private(NULL)\00", align 1
@.str.13 = private unnamed_addr constant [41 x i8] c"EVP_RAND_CTX_set_params(privctx, params)\00", align 1
@.str.14 = private unnamed_addr constant [40 x i8] c"RAND_priv_bytes(outbuf, sizeof(outbuf))\00", align 1
@.str.15 = private unnamed_addr constant [2 x i8] c"0\00", align 1
@.str.16 = private unnamed_addr constant [7 x i8] c"outbuf\00", align 1
@.str.17 = private unnamed_addr constant [9 x i8] c"entropy1\00", align 1
@.str.18 = private unnamed_addr constant [44 x i8] c"RAND_priv_bytes(outbuf, sizeof(outbuf) + 1)\00", align 1
@.str.19 = private unnamed_addr constant [26 x i8] c"entropy1 + sizeof(outbuf)\00", align 1
@.str.20 = private unnamed_addr constant [9 x i8] c"entropy2\00", align 1
@.str.21 = private unnamed_addr constant [15 x i8] c"fips-indicator\00", align 1
@.str.22 = private unnamed_addr constant [41 x i8] c"EVP_RAND_CTX_get_params(privctx, params)\00", align 1
@.str.23 = private unnamed_addr constant [10 x i8] c"indicator\00", align 1

; Function Attrs: nounwind uwtable
define internal i32 @test_rand() #0 {
  %1 = alloca i32, align 4
  %2 = alloca ptr, align 8
  %3 = alloca ptr, align 8
  %4 = alloca i32, align 4
  %5 = alloca [2 x %struct.ossl_param_st], align 16
  %6 = alloca ptr, align 8
  %7 = alloca [6 x i8], align 1
  %8 = alloca [3 x i8], align 1
  %9 = alloca [3 x i8], align 1
  %10 = alloca %struct.ossl_param_st, align 8
  %11 = alloca %struct.ossl_param_st, align 8
  %12 = alloca i32, align 4
  %13 = alloca %struct.ossl_param_st, align 8
  %14 = alloca %struct.ossl_param_st, align 8
  call void @llvm.lifetime.start.p0(i64 8, ptr %2) #8
  call void @llvm.lifetime.start.p0(i64 8, ptr %3) #8
  call void @llvm.lifetime.start.p0(i64 4, ptr %4) #8
  store i32 1, ptr %4, align 4, !tbaa !9
  call void @llvm.lifetime.start.p0(i64 80, ptr %5) #8
  call void @llvm.lifetime.start.p0(i64 8, ptr %6) #8
  %15 = getelementptr inbounds [2 x %struct.ossl_param_st], ptr %5, i64 0, i64 0
  store ptr %15, ptr %6, align 8, !tbaa !11
  call void @llvm.lifetime.start.p0(i64 6, ptr %7) #8
  call void @llvm.memcpy.p0.p0.i64(ptr align 1 %7, ptr align 1 @__const.test_rand.entropy1, i64 6, i1 false)
  call void @llvm.lifetime.start.p0(i64 3, ptr %8) #8
  call void @llvm.memcpy.p0.p0.i64(ptr align 1 %8, ptr align 1 @__const.test_rand.entropy2, i64 3, i1 false)
  call void @llvm.lifetime.start.p0(i64 3, ptr %9) #8
  %16 = load ptr, ptr %6, align 8, !tbaa !11
  %17 = getelementptr inbounds nuw %struct.ossl_param_st, ptr %16, i32 1
  store ptr %17, ptr %6, align 8, !tbaa !11
  call void @llvm.lifetime.start.p0(i64 40, ptr %10) #8
  %18 = getelementptr inbounds [6 x i8], ptr %7, i64 0, i64 0
  call void @OSSL_PARAM_construct_octet_string(ptr dead_on_unwind writable sret(%struct.ossl_param_st) align 8 %10, ptr noundef @.str.11, ptr noundef %18, i64 noundef 6)
  call void @llvm.memcpy.p0.p0.i64(ptr align 8 %16, ptr align 8 %10, i64 40, i1 false), !tbaa.struct !13
  call void @llvm.lifetime.end.p0(i64 40, ptr %10) #8
  %19 = load ptr, ptr %6, align 8, !tbaa !11
  call void @llvm.lifetime.start.p0(i64 40, ptr %11) #8
  call void @OSSL_PARAM_construct_end(ptr dead_on_unwind writable sret(%struct.ossl_param_st) align 8 %11)
  call void @llvm.memcpy.p0.p0.i64(ptr align 8 %19, ptr align 8 %11, i64 40, i1 false), !tbaa.struct !13
  call void @llvm.lifetime.end.p0(i64 40, ptr %11) #8
  %20 = call ptr @RAND_get0_private(ptr noundef null)
  store ptr %20, ptr %2, align 8, !tbaa !17
  %21 = call i32 @test_ptr(ptr noundef @.str, i32 noundef 32, ptr noundef @.str.12, ptr noundef %20)
  %22 = icmp ne i32 %21, 0
  br i1 %22, label %23, label %57

23:                                               ; preds = %0
  %24 = load ptr, ptr %2, align 8, !tbaa !17
  %25 = getelementptr inbounds [2 x %struct.ossl_param_st], ptr %5, i64 0, i64 0
  %26 = call i32 @EVP_RAND_CTX_set_params(ptr noundef %24, ptr noundef %25)
  %27 = icmp ne i32 %26, 0
  %28 = zext i1 %27 to i32
  %29 = call i32 @test_true(ptr noundef @.str, i32 noundef 33, ptr noundef @.str.13, i32 noundef %28)
  %30 = icmp ne i32 %29, 0
  br i1 %30, label %31, label %57

31:                                               ; preds = %23
  %32 = getelementptr inbounds [3 x i8], ptr %9, i64 0, i64 0
  %33 = call i32 @RAND_priv_bytes(ptr noundef %32, i32 noundef 3)
  %34 = call i32 @test_int_gt(ptr noundef @.str, i32 noundef 34, ptr noundef @.str.14, ptr noundef @.str.15, i32 noundef %33, i32 noundef 0)
  %35 = icmp ne i32 %34, 0
  br i1 %35, label %36, label %57

36:                                               ; preds = %31
  %37 = getelementptr inbounds [3 x i8], ptr %9, i64 0, i64 0
  %38 = getelementptr inbounds [6 x i8], ptr %7, i64 0, i64 0
  %39 = call i32 @test_mem_eq(ptr noundef @.str, i32 noundef 35, ptr noundef @.str.16, ptr noundef @.str.17, ptr noundef %37, i64 noundef 3, ptr noundef %38, i64 noundef 3)
  %40 = icmp ne i32 %39, 0
  br i1 %40, label %41, label %57

41:                                               ; preds = %36
  %42 = getelementptr inbounds [3 x i8], ptr %9, i64 0, i64 0
  %43 = call i32 @RAND_priv_bytes(ptr noundef %42, i32 noundef 4)
  %44 = call i32 @test_int_le(ptr noundef @.str, i32 noundef 36, ptr noundef @.str.18, ptr noundef @.str.15, i32 noundef %43, i32 noundef 0)
  %45 = icmp ne i32 %44, 0
  br i1 %45, label %46, label %57

46:                                               ; preds = %41
  %47 = getelementptr inbounds [3 x i8], ptr %9, i64 0, i64 0
  %48 = call i32 @RAND_priv_bytes(ptr noundef %47, i32 noundef 3)
  %49 = call i32 @test_int_gt(ptr noundef @.str, i32 noundef 37, ptr noundef @.str.14, ptr noundef @.str.15, i32 noundef %48, i32 noundef 0)
  %50 = icmp ne i32 %49, 0
  br i1 %50, label %51, label %57

51:                                               ; preds = %46
  %52 = getelementptr inbounds [3 x i8], ptr %9, i64 0, i64 0
  %53 = getelementptr inbounds [6 x i8], ptr %7, i64 0, i64 0
  %54 = getelementptr inbounds nuw i8, ptr %53, i64 3
  %55 = call i32 @test_mem_eq(ptr noundef @.str, i32 noundef 39, ptr noundef @.str.16, ptr noundef @.str.19, ptr noundef %52, i64 noundef 3, ptr noundef %54, i64 noundef 3)
  %56 = icmp ne i32 %55, 0
  br i1 %56, label %58, label %57

57:                                               ; preds = %51, %46, %41, %36, %31, %23, %0
  store i32 0, ptr %1, align 4
  store i32 1, ptr %12, align 4
  br label %110

58:                                               ; preds = %51
  %59 = getelementptr inbounds [2 x %struct.ossl_param_st], ptr %5, i64 0, i64 0
  call void @llvm.lifetime.start.p0(i64 40, ptr %13) #8
  %60 = getelementptr inbounds [3 x i8], ptr %8, i64 0, i64 0
  call void @OSSL_PARAM_construct_octet_string(ptr dead_on_unwind writable sret(%struct.ossl_param_st) align 8 %13, ptr noundef @.str.11, ptr noundef %60, i64 noundef 3)
  call void @llvm.memcpy.p0.p0.i64(ptr align 16 %59, ptr align 8 %13, i64 40, i1 false), !tbaa.struct !13
  call void @llvm.lifetime.end.p0(i64 40, ptr %13) #8
  %61 = load ptr, ptr %2, align 8, !tbaa !17
  %62 = getelementptr inbounds [2 x %struct.ossl_param_st], ptr %5, i64 0, i64 0
  %63 = call i32 @EVP_RAND_CTX_set_params(ptr noundef %61, ptr noundef %62)
  %64 = icmp ne i32 %63, 0
  %65 = zext i1 %64 to i32
  %66 = call i32 @test_true(ptr noundef @.str, i32 noundef 44, ptr noundef @.str.13, i32 noundef %65)
  %67 = icmp ne i32 %66, 0
  br i1 %67, label %68, label %78

68:                                               ; preds = %58
  %69 = getelementptr inbounds [3 x i8], ptr %9, i64 0, i64 0
  %70 = call i32 @RAND_priv_bytes(ptr noundef %69, i32 noundef 3)
  %71 = call i32 @test_int_gt(ptr noundef @.str, i32 noundef 45, ptr noundef @.str.14, ptr noundef @.str.15, i32 noundef %70, i32 noundef 0)
  %72 = icmp ne i32 %71, 0
  br i1 %72, label %73, label %78

73:                                               ; preds = %68
  %74 = getelementptr inbounds [3 x i8], ptr %9, i64 0, i64 0
  %75 = getelementptr inbounds [3 x i8], ptr %8, i64 0, i64 0
  %76 = call i32 @test_mem_eq(ptr noundef @.str, i32 noundef 46, ptr noundef @.str.16, ptr noundef @.str.20, ptr noundef %74, i64 noundef 3, ptr noundef %75, i64 noundef 3)
  %77 = icmp ne i32 %76, 0
  br i1 %77, label %79, label %78

78:                                               ; preds = %73, %68, %58
  store i32 0, ptr %1, align 4
  store i32 1, ptr %12, align 4
  br label %110

79:                                               ; preds = %73
  %80 = call i32 @fips_provider_version_lt(ptr noundef null, i32 noundef 3, i32 noundef 4, i32 noundef 0)
  %81 = icmp ne i32 %80, 0
  br i1 %81, label %82, label %83

82:                                               ; preds = %79
  store i32 1, ptr %1, align 4
  store i32 1, ptr %12, align 4
  br label %110

83:                                               ; preds = %79
  %84 = load ptr, ptr %2, align 8, !tbaa !17
  %85 = call ptr @EVP_RAND_CTX_get0_rand(ptr noundef %84)
  %86 = call ptr @EVP_RAND_get0_provider(ptr noundef %85)
  store ptr %86, ptr %3, align 8, !tbaa !19
  %87 = load ptr, ptr %3, align 8, !tbaa !19
  %88 = icmp ne ptr %87, null
  br i1 %88, label %89, label %109

89:                                               ; preds = %83
  %90 = load ptr, ptr %3, align 8, !tbaa !19
  %91 = call ptr @OSSL_PROVIDER_get0_name(ptr noundef %90)
  %92 = call i32 @strcmp(ptr noundef %91, ptr noundef @.str.8) #9
  %93 = icmp eq i32 %92, 0
  br i1 %93, label %94, label %109

94:                                               ; preds = %89
  %95 = getelementptr inbounds [2 x %struct.ossl_param_st], ptr %5, i64 0, i64 0
  call void @llvm.lifetime.start.p0(i64 40, ptr %14) #8
  call void @OSSL_PARAM_construct_int(ptr dead_on_unwind writable sret(%struct.ossl_param_st) align 8 %14, ptr noundef @.str.21, ptr noundef %4)
  call void @llvm.memcpy.p0.p0.i64(ptr align 16 %95, ptr align 8 %14, i64 40, i1 false), !tbaa.struct !13
  call void @llvm.lifetime.end.p0(i64 40, ptr %14) #8
  %96 = load ptr, ptr %2, align 8, !tbaa !17
  %97 = getelementptr inbounds [2 x %struct.ossl_param_st], ptr %5, i64 0, i64 0
  %98 = call i32 @EVP_RAND_CTX_get_params(ptr noundef %96, ptr noundef %97)
  %99 = icmp ne i32 %98, 0
  %100 = zext i1 %99 to i32
  %101 = call i32 @test_true(ptr noundef @.str, i32 noundef 59, ptr noundef @.str.22, i32 noundef %100)
  %102 = icmp ne i32 %101, 0
  br i1 %102, label %103, label %107

103:                                              ; preds = %94
  %104 = load i32, ptr %4, align 4, !tbaa !9
  %105 = call i32 @test_int_eq(ptr noundef @.str, i32 noundef 60, ptr noundef @.str.23, ptr noundef @.str.15, i32 noundef %104, i32 noundef 0)
  %106 = icmp ne i32 %105, 0
  br i1 %106, label %108, label %107

107:                                              ; preds = %103, %94
  store i32 0, ptr %1, align 4
  store i32 1, ptr %12, align 4
  br label %110

108:                                              ; preds = %103
  br label %109

109:                                              ; preds = %108, %89, %83
  store i32 1, ptr %1, align 4
  store i32 1, ptr %12, align 4
  br label %110

110:                                              ; preds = %109, %107, %82, %78, %57
  call void @llvm.lifetime.end.p0(i64 3, ptr %9) #8
  call void @llvm.lifetime.end.p0(i64 3, ptr %8) #8
  call void @llvm.lifetime.end.p0(i64 6, ptr %7) #8
  call void @llvm.lifetime.end.p0(i64 8, ptr %6) #8
  call void @llvm.lifetime.end.p0(i64 80, ptr %5) #8
  call void @llvm.lifetime.end.p0(i64 4, ptr %4) #8
  call void @llvm.lifetime.end.p0(i64 8, ptr %3) #8
  call void @llvm.lifetime.end.p0(i64 8, ptr %2) #8
  %111 = load i32, ptr %1, align 4
  ret i32 %111
}