; Function Attrs: nounwind uwtable
define internal range(i32 0, 2) i32 @test_rand() #0 {
  %1 = alloca i32, align 4
  %2 = alloca [2 x %struct.ossl_param_st], align 16
  %3 = alloca [6 x i8], align 1
  %4 = alloca [3 x i8], align 1
  %5 = alloca [3 x i8], align 1
  %6 = alloca %struct.ossl_param_st, align 8
  %7 = alloca %struct.ossl_param_st, align 8
  %8 = alloca %struct.ossl_param_st, align 8
  call void @llvm.lifetime.start.p0(i64 4, ptr nonnull %1) #11
  store i32 1, ptr %1, align 4, !tbaa !4
  call void @llvm.lifetime.start.p0(i64 80, ptr nonnull %2) #11
  call void @llvm.lifetime.start.p0(i64 6, ptr nonnull %3) #11
  call void @llvm.memcpy.p0.p0.i64(ptr noundef nonnull align 1 dereferenceable(6) %3, ptr noundef nonnull align 1 dereferenceable(6) @__const.test_rand.entropy1, i64 6, i1 false)
  call void @llvm.lifetime.start.p0(i64 3, ptr nonnull %4) #11
  call void @llvm.memcpy.p0.p0.i64(ptr noundef nonnull align 1 dereferenceable(3) %4, ptr noundef nonnull align 1 dereferenceable(3) @__const.test_rand.entropy2, i64 3, i1 false)
  call void @llvm.lifetime.start.p0(i64 3, ptr nonnull %5) #11
  %9 = getelementptr inbounds nuw i8, ptr %2, i64 40
  call void @OSSL_PARAM_construct_octet_string(ptr dead_on_unwind nonnull writable sret(%struct.ossl_param_st) align 8 %2, ptr noundef nonnull @.str.11, ptr noundef nonnull %3, i64 noundef 6) #11
  call void @llvm.lifetime.start.p0(i64 40, ptr nonnull %6) #11
  call void @OSSL_PARAM_construct_end(ptr dead_on_unwind nonnull writable sret(%struct.ossl_param_st) align 8 %6) #11
  call void @llvm.memcpy.p0.p0.i64(ptr noundef nonnull align 8 dereferenceable(40) %9, ptr noundef nonnull align 8 dereferenceable(40) %6, i64 40, i1 false), !tbaa.struct !8
  call void @llvm.lifetime.end.p0(i64 40, ptr nonnull %6) #11
  %10 = call ptr @RAND_get0_private(ptr noundef null) #11
  %11 = call i32 @test_ptr(ptr noundef nonnull @.str, i32 noundef 32, ptr noundef nonnull @.str.12, ptr noundef %10) #11
  %.not = icmp eq i32 %11, 0
  br i1 %.not, label %59, label %12

12:                                               ; preds = %0
  %13 = call i32 @EVP_RAND_CTX_set_params(ptr noundef %10, ptr noundef nonnull %2) #11
  %14 = icmp ne i32 %13, 0
  %15 = zext i1 %14 to i32
  %16 = call i32 @test_true(ptr noundef nonnull @.str, i32 noundef 33, ptr noundef nonnull @.str.13, i32 noundef %15) #11
  %.not9 = icmp eq i32 %16, 0
  br i1 %.not9, label %59, label %17

17:                                               ; preds = %12
  %18 = call i32 @RAND_priv_bytes(ptr noundef nonnull %5, i32 noundef 3) #11
  %19 = call i32 @test_int_gt(ptr noundef nonnull @.str, i32 noundef 34, ptr noundef nonnull @.str.14, ptr noundef nonnull @.str.15, i32 noundef %18, i32 noundef 0) #11
  %.not10 = icmp eq i32 %19, 0
  br i1 %.not10, label %59, label %20

20:                                               ; preds = %17
  %21 = call i32 @test_mem_eq(ptr noundef nonnull @.str, i32 noundef 35, ptr noundef nonnull @.str.16, ptr noundef nonnull @.str.17, ptr noundef nonnull %5, i64 noundef 3, ptr noundef nonnull %3, i64 noundef 3) #11
  %.not11 = icmp eq i32 %21, 0
  br i1 %.not11, label %59, label %22

22:                                               ; preds = %20
  %23 = call i32 @RAND_priv_bytes(ptr noundef nonnull %5, i32 noundef 4) #11
  %24 = call i32 @test_int_le(ptr noundef nonnull @.str, i32 noundef 36, ptr noundef nonnull @.str.18, ptr noundef nonnull @.str.15, i32 noundef %23, i32 noundef 0) #11
  %.not12 = icmp eq i32 %24, 0
  br i1 %.not12, label %59, label %25

25:                                               ; preds = %22
  %26 = call i32 @RAND_priv_bytes(ptr noundef nonnull %5, i32 noundef 3) #11
  %27 = call i32 @test_int_gt(ptr noundef nonnull @.str, i32 noundef 37, ptr noundef nonnull @.str.14, ptr noundef nonnull @.str.15, i32 noundef %26, i32 noundef 0) #11
  %.not13 = icmp eq i32 %27, 0
  br i1 %.not13, label %59, label %28

28:                                               ; preds = %25
  %29 = getelementptr inbounds nuw i8, ptr %3, i64 3
  %30 = call i32 @test_mem_eq(ptr noundef nonnull @.str, i32 noundef 39, ptr noundef nonnull @.str.16, ptr noundef nonnull @.str.19, ptr noundef nonnull %5, i64 noundef 3, ptr noundef nonnull %29, i64 noundef 3) #11
  %.not14 = icmp eq i32 %30, 0
  br i1 %.not14, label %59, label %31

31:                                               ; preds = %28
  call void @llvm.lifetime.start.p0(i64 40, ptr nonnull %7) #11
  call void @OSSL_PARAM_construct_octet_string(ptr dead_on_unwind nonnull writable sret(%struct.ossl_param_st) align 8 %7, ptr noundef nonnull @.str.11, ptr noundef nonnull %4, i64 noundef 3) #11
  call void @llvm.memcpy.p0.p0.i64(ptr noundef nonnull align 16 dereferenceable(40) %2, ptr noundef nonnull align 8 dereferenceable(40) %7, i64 40, i1 false), !tbaa.struct !8
  call void @llvm.lifetime.end.p0(i64 40, ptr nonnull %7) #11
  %32 = call i32 @EVP_RAND_CTX_set_params(ptr noundef %10, ptr noundef nonnull %2) #11
  %33 = icmp ne i32 %32, 0
  %34 = zext i1 %33 to i32
  %35 = call i32 @test_true(ptr noundef nonnull @.str, i32 noundef 44, ptr noundef nonnull @.str.13, i32 noundef %34) #11
  %.not15 = icmp eq i32 %35, 0
  br i1 %.not15, label %59, label %36

36:                                               ; preds = %31
  %37 = call i32 @RAND_priv_bytes(ptr noundef nonnull %5, i32 noundef 3) #11
  %38 = call i32 @test_int_gt(ptr noundef nonnull @.str, i32 noundef 45, ptr noundef nonnull @.str.14, ptr noundef nonnull @.str.15, i32 noundef %37, i32 noundef 0) #11
  %.not16 = icmp eq i32 %38, 0
  br i1 %.not16, label %59, label %39

39:                                               ; preds = %36
  %40 = call i32 @test_mem_eq(ptr noundef nonnull @.str, i32 noundef 46, ptr noundef nonnull @.str.16, ptr noundef nonnull @.str.20, ptr noundef nonnull %5, i64 noundef 3, ptr noundef nonnull %4, i64 noundef 3) #11
  %.not17 = icmp eq i32 %40, 0
  br i1 %.not17, label %59, label %41

41:                                               ; preds = %39
  %42 = call i32 @fips_provider_version_lt(ptr noundef null, i32 noundef 3, i32 noundef 4, i32 noundef 0) #11
  %.not18 = icmp eq i32 %42, 0
  br i1 %.not18, label %43, label %59

43:                                               ; preds = %41
  %44 = call ptr @EVP_RAND_CTX_get0_rand(ptr noundef %10) #11
  %45 = call ptr @EVP_RAND_get0_provider(ptr noundef %44) #11
  %.not19 = icmp eq ptr %45, null
  br i1 %.not19, label %58, label %46

46:                                               ; preds = %43
  %47 = call ptr @OSSL_PROVIDER_get0_name(ptr noundef nonnull %45) #11
  %48 = call i32 @strcmp(ptr noundef nonnull dereferenceable(1) %47, ptr noundef nonnull dereferenceable(5) @.str.8) #12
  %49 = icmp eq i32 %48, 0
  br i1 %49, label %50, label %58

50:                                               ; preds = %46
  call void @llvm.lifetime.start.p0(i64 40, ptr nonnull %8) #11
  call void @OSSL_PARAM_construct_int(ptr dead_on_unwind nonnull writable sret(%struct.ossl_param_st) align 8 %8, ptr noundef nonnull @.str.21, ptr noundef nonnull %1) #11
  call void @llvm.memcpy.p0.p0.i64(ptr noundef nonnull align 16 dereferenceable(40) %2, ptr noundef nonnull align 8 dereferenceable(40) %8, i64 40, i1 false), !tbaa.struct !8
  call void @llvm.lifetime.end.p0(i64 40, ptr nonnull %8) #11
  %51 = call i32 @EVP_RAND_CTX_get_params(ptr noundef %10, ptr noundef nonnull %2) #11
  %52 = icmp ne i32 %51, 0
  %53 = zext i1 %52 to i32
  %54 = call i32 @test_true(ptr noundef nonnull @.str, i32 noundef 59, ptr noundef nonnull @.str.22, i32 noundef %53) #11
  %.not20 = icmp eq i32 %54, 0
  br i1 %.not20, label %59, label %55

55:                                               ; preds = %50
  %56 = load i32, ptr %1, align 4, !tbaa !4
  %57 = call i32 @test_int_eq(ptr noundef nonnull @.str, i32 noundef 60, ptr noundef nonnull @.str.23, ptr noundef nonnull @.str.15, i32 noundef %56, i32 noundef 0) #11
  %.not21 = icmp eq i32 %57, 0
  br i1 %.not21, label %59, label %58

58:                                               ; preds = %55, %46, %43
  br label %59

59:                                               ; preds = %50, %55, %41, %31, %36, %39, %0, %12, %17, %20, %22, %25, %28, %58
  %.0 = phi i32 [ 1, %58 ], [ 0, %28 ], [ 0, %25 ], [ 0, %22 ], [ 0, %20 ], [ 0, %17 ], [ 0, %12 ], [ 0, %0 ], [ 0, %39 ], [ 0, %36 ], [ 0, %31 ], [ 1, %41 ], [ 0, %55 ], [ 0, %50 ]
  call void @llvm.lifetime.end.p0(i64 3, ptr nonnull %5) #11
  call void @llvm.lifetime.end.p0(i64 3, ptr nonnull %4) #11
  call void @llvm.lifetime.end.p0(i64 6, ptr nonnull %3) #11
  call void @llvm.lifetime.end.p0(i64 80, ptr nonnull %2) #11
  call void @llvm.lifetime.end.p0(i64 4, ptr nonnull %1) #11
  ret i32 %.0
}